target datalayout = "e-m:e-p270:32:32-p271:32:32-p272:64:64-i64:64-i128:128-f80:128-n8:16:32:64-S128"
target triple = "x86_64-pc-linux-gnu"

; Function Attrs: nounwind ssp uwtable
define dso_local void @crypto_core_ed25519_scalar_random(ptr noundef nonnull %0) #0 {
  %2 = alloca ptr, align 8
  store ptr %0, ptr %2, align 8
  br label %3

3:                                                ; preds = %19, %1
  %4 = load ptr, ptr %2, align 8
  call void @randombytes_buf(ptr noundef %4, i64 noundef 32)
  %5 = load ptr, ptr %2, align 8
  %6 = getelementptr i8, ptr %5, i64 31
  %7 = load i8, ptr %6, align 1
  %8 = zext i8 %7 to i32
  %9 = and i32 %8, 31
  %10 = trunc i32 %9 to i8
  store i8 %10, ptr %6, align 1
  br label %11

11:                                               ; preds = %3
  %12 = load ptr, ptr %2, align 8
  %13 = call i32 @_sodium_sc25519_is_canonical(ptr noundef %12)
  %14 = icmp eq i32 %13, 0
  br i1 %14, label %19, label %15

15:                                               ; preds = %11
  %16 = load ptr, ptr %2, align 8
  %17 = call i32 @sodium_is_zero(ptr noundef %16, i64 noundef 32)
  %18 = icmp ne i32 %17, 0
  br label %19

19:                                               ; preds = %15, %11
  %20 = phi i1 [ true, %11 ], [ %18, %15 ]
  br i1 %20, label %3, label %21, !llvm.loop !7

21:                                               ; preds = %19
  ret void
}