; Function Attrs: nounwind ssp uwtable
define dso_local void @crypto_core_ed25519_scalar_random(ptr noundef nonnull %0) local_unnamed_addr #0 {
  %2 = getelementptr i8, ptr %0, i64 31
  br label %.critedge

.critedge:                                        ; preds = %.critedge.backedge, %1
  tail call void @randombytes_buf(ptr noundef nonnull %0, i64 noundef 32) #6
  %3 = load i8, ptr %2, align 1
  %4 = and i8 %3, 31
  store i8 %4, ptr %2, align 1
  %5 = tail call i32 @_sodium_sc25519_is_canonical(ptr noundef nonnull %0) #6
  %6 = icmp eq i32 %5, 0
  br i1 %6, label %.critedge.backedge, label %7

7:                                                ; preds = %.critedge
  %8 = tail call i32 @sodium_is_zero(ptr noundef nonnull %0, i64 noundef 32) #6
  %.not = icmp eq i32 %8, 0
  br i1 %.not, label %9, label %.critedge.backedge

.critedge.backedge:                               ; preds = %7, %.critedge
  br label %.critedge, !llvm.loop !7

9:                                                ; preds = %7
  ret void
}